; Function Attrs: nofree norecurse nosync nounwind memory(read, inaccessiblemem: none) uwtable
define range(i32 1, -2147483648) i32 @Gia_ManCoSuppSizeMax(ptr noundef readonly captures(none) %0, ptr noundef readonly captures(none) %1) local_unnamed_addr #12 {
  %3 = getelementptr inbounds nuw i8, ptr %0, i64 72
  %4 = load ptr, ptr %3, align 8
  %5 = getelementptr i8, ptr %4, i64 4
  %.val10 = load i32, ptr %5, align 4
  %6 = icmp sgt i32 %.val10, 0
  br i1 %6, label %.lr.ph, label %.critedge

.lr.ph:                                           ; preds = %2
  %7 = getelementptr i8, ptr %0, i64 32
  %.val11 = load ptr, ptr %7, align 8
  %.not = icmp eq ptr %.val11, null
  br i1 %.not, label %.critedge, label %.lr.ph.split

.lr.ph.split:                                     ; preds = %.lr.ph
  %8 = getelementptr i8, ptr %1, i64 8
  %.val13 = load ptr, ptr %8, align 8
  %wide.trip.count = zext nneg i32 %.val10 to i64
  br label %9

9:                                                ; preds = %.lr.ph.split, %9
  %indvars.iv = phi i64 [ 0, %.lr.ph.split ], [ %indvars.iv.next, %9 ]
  %.015 = phi i32 [ 1, %.lr.ph.split ], [ %11, %9 ]
  %10 = getelementptr %struct.Vec_Int_t_, ptr %.val13, i64 %indvars.iv, i32 1
  %.val = load i32, ptr %10, align 4
  %11 = tail call noundef i32 @llvm.smax.i32(i32 %.015, i32 %.val)
  %indvars.iv.next = add nuw nsw i64 %indvars.iv, 1
  %exitcond.not = icmp eq i64 %indvars.iv.next, %wide.trip.count
  br i1 %exitcond.not, label %.critedge, label %9, !llvm.loop !374

.critedge:                                        ; preds = %9, %.lr.ph, %2
  %.0.lcssa = phi i32 [ 1, %2 ], [ 1, %.lr.ph ], [ %11, %9 ]
  ret i32 %.0.lcssa
}